target datalayout = "e-m:e-p270:32:32-p271:32:32-p272:64:64-i64:64-i128:128-f80:128-n8:16:32:64-S128"
target triple = "x86_64-pc-linux-gnu"

%struct.uv__queue = type { ptr, ptr }
%struct.uv_buf_t = type { ptr, i64 }
%struct.uv_fs_s = type { ptr, i32, [6 x ptr], i32, ptr, ptr, i64, ptr, ptr, %struct.uv_stat_t, ptr, i32, i32, i32, i32, ptr, i64, i32, i32, double, double, %struct.uv__work, [4 x %struct.uv_buf_t] }
%struct.uv_stat_t = type { i64, i64, i64, i64, i64, i64, i64, i64, i64, i64, i64, i64, %struct.uv_timespec_t, %struct.uv_timespec_t, %struct.uv_timespec_t, %struct.uv_timespec_t }
%struct.uv_timespec_t = type { i64, i64 }
%struct.uv__work = type { ptr, ptr, ptr, %struct.uv__queue }

; Function Attrs: nounwind uwtable
define internal ptr @uv__get_nbufs(ptr noundef %0) #0 {
  %2 = alloca ptr, align 8
  store ptr %0, ptr %2, align 8
  %3 = load ptr, ptr %2, align 8
  %4 = getelementptr inbounds nuw %struct.uv_fs_s, ptr %3, i32 0, i32 14
  ret ptr %4
}

; Function Attrs: nounwind uwtable
define hidden void @uv__fs_scandir_cleanup(ptr noundef %0) #0 {
  %2 = alloca ptr, align 8
  %3 = alloca ptr, align 8
  %4 = alloca ptr, align 8
  %5 = alloca i32, align 4
  %6 = alloca i32, align 4
  store ptr %0, ptr %2, align 8
  call void @llvm.lifetime.start.p0(i64 8, ptr %3) #13
  call void @llvm.lifetime.start.p0(i64 8, ptr %4) #13
  call void @llvm.lifetime.start.p0(i64 4, ptr %5) #13
  call void @llvm.lifetime.start.p0(i64 4, ptr %6) #13
  %7 = load ptr, ptr %2, align 8
  %8 = getelementptr inbounds nuw %struct.uv_fs_s, ptr %7, i32 0, i32 6
  %9 = load i64, ptr %8, align 8
  %10 = icmp sge i64 %9, 0
  br i1 %10, label %11, label %43

11:                                               ; preds = %1
  %12 = load ptr, ptr %2, align 8
  %13 = getelementptr inbounds nuw %struct.uv_fs_s, ptr %12, i32 0, i32 7
  %14 = load ptr, ptr %13, align 8
  store ptr %14, ptr %3, align 8
  %15 = load ptr, ptr %2, align 8
  %16 = call ptr @uv__get_nbufs(ptr noundef %15)
  store ptr %16, ptr %4, align 8
  store i32 0, ptr %5, align 4
  %17 = load ptr, ptr %4, align 8
  %18 = load i32, ptr %17, align 4
  %19 = icmp ugt i32 %18, 0
  br i1 %19, label %20, label %24

20:                                               ; preds = %11
  %21 = load ptr, ptr %4, align 8
  %22 = load i32, ptr %21, align 4
  %23 = sub i32 %22, 1
  store i32 %23, ptr %5, align 4
  br label %24

24:                                               ; preds = %20, %11
  %25 = load ptr, ptr %2, align 8
  %26 = getelementptr inbounds nuw %struct.uv_fs_s, ptr %25, i32 0, i32 6
  %27 = load i64, ptr %26, align 8
  %28 = trunc i64 %27 to i32
  store i32 %28, ptr %6, align 4
  br label %29

29:                                               ; preds = %39, %24
  %30 = load i32, ptr %5, align 4
  %31 = load i32, ptr %6, align 4
  %32 = icmp ult i32 %30, %31
  br i1 %32, label %33, label %42

33:                                               ; preds = %29
  %34 = load ptr, ptr %3, align 8
  %35 = load i32, ptr %5, align 4
  %36 = zext i32 %35 to i64
  %37 = getelementptr inbounds nuw ptr, ptr %34, i64 %36
  %38 = load ptr, ptr %37, align 8
  call void @free(ptr noundef %38) #13
  br label %39

39:                                               ; preds = %33
  %40 = load i32, ptr %5, align 4
  %41 = add i32 %40, 1
  store i32 %41, ptr %5, align 4
  br label %29

42:                                               ; preds = %29
  br label %43

43:                                               ; preds = %42, %1
  %44 = load ptr, ptr %2, align 8
  %45 = getelementptr inbounds nuw %struct.uv_fs_s, ptr %44, i32 0, i32 7
  %46 = load ptr, ptr %45, align 8
  call void @free(ptr noundef %46) #13
  %47 = load ptr, ptr %2, align 8
  %48 = getelementptr inbounds nuw %struct.uv_fs_s, ptr %47, i32 0, i32 7
  store ptr null, ptr %48, align 8
  call void @llvm.lifetime.end.p0(i64 4, ptr %6) #13
  call void @llvm.lifetime.end.p0(i64 4, ptr %5) #13
  call void @llvm.lifetime.end.p0(i64 8, ptr %4) #13
  call void @llvm.lifetime.end.p0(i64 8, ptr %3) #13
  ret void
}