; Function Attrs: nounwind uwtable
define hidden void @uv__fs_scandir_cleanup(ptr noundef captures(none) %0) local_unnamed_addr #0 {
  %2 = getelementptr inbounds nuw i8, ptr %0, i64 88
  %3 = load i64, ptr %2, align 8
  %4 = icmp sgt i64 %3, -1
  br i1 %4, label %5, label %.loopexit

5:                                                ; preds = %1
  %6 = getelementptr inbounds nuw i8, ptr %0, i64 96
  %7 = load ptr, ptr %6, align 8
  %8 = getelementptr inbounds nuw i8, ptr %0, i64 292
  %9 = load i32, ptr %8, align 4
  %spec.select = tail call i32 @llvm.usub.sat.i32(i32 %9, i32 1)
  %10 = trunc i64 %3 to i32
  %11 = icmp ult i32 %spec.select, %10
  br i1 %11, label %.lr.ph.preheader, label %.loopexit

.lr.ph.preheader:                                 ; preds = %5
  %12 = zext i32 %spec.select to i64
  %13 = and i64 %3, 4294967295
  br label %.lr.ph

.lr.ph:                                           ; preds = %.lr.ph.preheader, %.lr.ph
  %indvars.iv = phi i64 [ %12, %.lr.ph.preheader ], [ %indvars.iv.next, %.lr.ph ]
  %14 = getelementptr inbounds nuw ptr, ptr %7, i64 %indvars.iv
  %15 = load ptr, ptr %14, align 8
  tail call void @free(ptr noundef %15) #26
  %indvars.iv.next = add nuw nsw i64 %indvars.iv, 1
  %16 = icmp samesign ult i64 %indvars.iv.next, %13
  br i1 %16, label %.lr.ph, label %.loopexit

.loopexit:                                        ; preds = %.lr.ph, %5, %1
  %17 = getelementptr inbounds nuw i8, ptr %0, i64 96
  %18 = load ptr, ptr %17, align 8
  tail call void @free(ptr noundef %18) #26
  store ptr null, ptr %17, align 8
  ret void
}